target datalayout = "e-m:e-p270:32:32-p271:32:32-p272:64:64-i64:64-i128:128-f80:128-n8:16:32:64-S128"
target triple = "x86_64-pc-linux-gnu"

@max = internal global i32 1000, align 4
@verbose = internal global i32 0, align 4
@.str.18 = private unnamed_addr constant [10 x i8] c"test_x448\00", align 1
@.str.19 = private unnamed_addr constant [11 x i8] c"test_ed448\00", align 1

; Function Attrs: nounwind uwtable
define dso_local i32 @setup_tests() #0 {
  %1 = alloca i32, align 4
  %2 = alloca i32, align 4
  %3 = alloca i32, align 4
  call void @llvm.lifetime.start.p0(i64 4, ptr %2) #5
  br label %4

4:                                                ; preds = %13, %0
  %5 = call i32 @opt_next()
  store i32 %5, ptr %2, align 4, !tbaa !4
  %6 = icmp ne i32 %5, 0
  br i1 %6, label %7, label %14

7:                                                ; preds = %4
  %8 = load i32, ptr %2, align 4, !tbaa !4
  switch i32 %8, label %10 [
    i32 500, label %9
    i32 501, label %9
    i32 502, label %9
    i32 503, label %9
    i32 504, label %9
    i32 505, label %9
    i32 2, label %11
    i32 1, label %12
  ]

9:                                                ; preds = %7, %7, %7, %7, %7, %7
  br label %13

10:                                               ; preds = %7
  store i32 0, ptr %1, align 4
  store i32 1, ptr %3, align 4
  br label %15

11:                                               ; preds = %7
  store i32 1000000, ptr @max, align 4, !tbaa !4
  br label %13

12:                                               ; preds = %7
  store i32 1, ptr @verbose, align 4, !tbaa !4
  br label %13

13:                                               ; preds = %12, %11, %9
  br label %4, !llvm.loop !8

14:                                               ; preds = %4
  call void @add_test(ptr noundef @.str.18, ptr noundef @test_x448)
  call void @add_test(ptr noundef @.str.19, ptr noundef @test_ed448)
  store i32 1, ptr %1, align 4
  store i32 1, ptr %3, align 4
  br label %15

15:                                               ; preds = %14, %10
  call void @llvm.lifetime.end.p0(i64 4, ptr %2) #5
  %16 = load i32, ptr %1, align 4
  ret i32 %16
}