; Function Attrs: nounwind uwtable
define dso_local range(i32 0, 2) i32 @setup_tests() local_unnamed_addr #1 {
  br label %1

1:                                                ; preds = %.backedge, %0
  %2 = tail call i32 @opt_next() #8
  switch i32 %2, label %.loopexit [
    i32 0, label %4
    i32 500, label %.backedge
    i32 501, label %.backedge
    i32 502, label %.backedge
    i32 503, label %.backedge
    i32 504, label %.backedge
    i32 505, label %.backedge
    i32 2, label %.sink.split
    i32 1, label %3
  ]

3:                                                ; preds = %1
  br label %.sink.split

.sink.split:                                      ; preds = %1, %3
  %verbose.sink = phi ptr [ @verbose, %3 ], [ @max, %1 ]
  store i1 true, ptr %verbose.sink, align 4
  br label %.backedge

.backedge:                                        ; preds = %.sink.split, %1, %1, %1, %1, %1, %1
  br label %1, !llvm.loop !4

4:                                                ; preds = %1
  tail call void @add_test(ptr noundef nonnull @.str.18, ptr noundef nonnull @test_x448) #8
  tail call void @add_test(ptr noundef nonnull @.str.19, ptr noundef nonnull @test_ed448) #8
  br label %.loopexit

.loopexit:                                        ; preds = %1, %4
  %.0 = phi i32 [ 1, %4 ], [ 0, %1 ]
  ret i32 %.0
}